; Function Attrs: mustprogress nounwind uwtable
define internal fastcc void @_ZN12_GLOBAL__N_116SubtargetEmitter17EmitProcessorPropERN4llvm11raw_ostreamEPKNS1_6RecordENS1_9StringRefEc(ptr noundef nonnull align 8 dereferenceable(48) %0, ptr noundef %1, ptr %2, i64 %3) unnamed_addr #2 align 2 {
  %5 = getelementptr inbounds nuw i8, ptr %0, i64 24
  %6 = load ptr, ptr %5, align 8
  %7 = getelementptr inbounds nuw i8, ptr %0, i64 32
  %8 = load ptr, ptr %7, align 8
  %9 = ptrtoint ptr %6 to i64
  %10 = ptrtoint ptr %8 to i64
  %11 = sub i64 %9, %10
  %12 = icmp ult i64 %11, 2
  br i1 %12, label %13, label %15

13:                                               ; preds = %4
  %14 = tail call noundef nonnull align 8 dereferenceable(48) ptr @_ZN4llvm11raw_ostream5writeEPKcm(ptr noundef nonnull align 8 dereferenceable(48) %0, ptr noundef nonnull @.str.95, i64 noundef 2) #20
  br label %_ZN4llvm11raw_ostreamlsEPKc.exit

15:                                               ; preds = %4
  store i16 8224, ptr %8, align 1
  %16 = load ptr, ptr %7, align 8
  %17 = getelementptr inbounds i8, ptr %16, i64 2
  store ptr %17, ptr %7, align 8
  br label %_ZN4llvm11raw_ostreamlsEPKc.exit

_ZN4llvm11raw_ostreamlsEPKc.exit:                 ; preds = %13, %15
  %.not = icmp eq ptr %1, null
  br i1 %.not, label %.thread, label %18

18:                                               ; preds = %_ZN4llvm11raw_ostreamlsEPKc.exit
  %19 = tail call noundef i64 @_ZNK4llvm6Record13getValueAsIntENS_9StringRefE(ptr noundef nonnull align 8 dereferenceable(192) %1, ptr %2, i64 %3) #20
  %20 = and i64 %19, 2147483648
  %21 = icmp eq i64 %20, 0
  br i1 %21, label %22, label %.thread

22:                                               ; preds = %18
  %23 = and i64 %19, 2147483647
  %24 = tail call noundef nonnull align 8 dereferenceable(48) ptr @_ZN4llvm11raw_ostreamlsEl(ptr noundef nonnull align 8 dereferenceable(48) %0, i64 noundef %23) #20
  %25 = getelementptr inbounds nuw i8, ptr %24, i64 32
  %26 = load ptr, ptr %25, align 8
  %27 = getelementptr inbounds nuw i8, ptr %24, i64 24
  %28 = load ptr, ptr %27, align 8
  %.not.i = icmp ult ptr %26, %28
  br i1 %.not.i, label %31, label %29

29:                                               ; preds = %22
  %30 = tail call noundef nonnull align 8 dereferenceable(48) ptr @_ZN4llvm11raw_ostream5writeEh(ptr noundef nonnull align 8 dereferenceable(48) %24, i8 noundef zeroext 44) #20
  br label %_ZN4llvm11raw_ostreamlsEc.exit

31:                                               ; preds = %22
  %32 = getelementptr inbounds i8, ptr %26, i64 1
  store ptr %32, ptr %25, align 8
  store i8 44, ptr %26, align 1
  br label %_ZN4llvm11raw_ostreamlsEc.exit

_ZN4llvm11raw_ostreamlsEc.exit:                   ; preds = %29, %31
  %.0.i = phi ptr [ %30, %29 ], [ %24, %31 ]
  %33 = getelementptr inbounds nuw i8, ptr %.0.i, i64 24
  %34 = load ptr, ptr %33, align 8
  %35 = getelementptr inbounds nuw i8, ptr %.0.i, i64 32
  %36 = load ptr, ptr %35, align 8
  %37 = ptrtoint ptr %34 to i64
  %38 = ptrtoint ptr %36 to i64
  %39 = sub i64 %37, %38
  %40 = icmp ult i64 %39, 4
  br i1 %40, label %41, label %43

41:                                               ; preds = %_ZN4llvm11raw_ostreamlsEc.exit
  %42 = tail call noundef nonnull align 8 dereferenceable(48) ptr @_ZN4llvm11raw_ostream5writeEPKcm(ptr noundef nonnull align 8 dereferenceable(48) %.0.i, ptr noundef nonnull @.str.314, i64 noundef 4) #20
  %.phi.trans.insert = getelementptr inbounds nuw i8, ptr %42, i64 32
  %.pre = load ptr, ptr %.phi.trans.insert, align 8
  br label %_ZN4llvm11raw_ostreamlsEPKc.exit19

43:                                               ; preds = %_ZN4llvm11raw_ostreamlsEc.exit
  store i32 539963168, ptr %36, align 1
  %44 = load ptr, ptr %35, align 8
  %45 = getelementptr inbounds i8, ptr %44, i64 4
  store ptr %45, ptr %35, align 8
  br label %_ZN4llvm11raw_ostreamlsEPKc.exit19

_ZN4llvm11raw_ostreamlsEPKc.exit19:               ; preds = %41, %43
  %46 = phi ptr [ %.pre, %41 ], [ %45, %43 ]
  %.0.i.i18 = phi ptr [ %42, %41 ], [ %.0.i, %43 ]
  %47 = getelementptr inbounds nuw i8, ptr %.0.i.i18, i64 24
  %48 = load ptr, ptr %47, align 8
  %49 = getelementptr inbounds nuw i8, ptr %.0.i.i18, i64 32
  %50 = ptrtoint ptr %48 to i64
  %51 = ptrtoint ptr %46 to i64
  %52 = sub i64 %50, %51
  %53 = icmp ugt i64 %3, %52
  br i1 %53, label %54, label %56

54:                                               ; preds = %_ZN4llvm11raw_ostreamlsEPKc.exit19
  %55 = tail call noundef nonnull align 8 dereferenceable(48) ptr @_ZN4llvm11raw_ostream5writeEPKcm(ptr noundef nonnull align 8 dereferenceable(48) %.0.i.i18, ptr noundef %2, i64 noundef %3) #20
  br label %_ZN4llvm11raw_ostreamlsENS_9StringRefE.exit

56:                                               ; preds = %_ZN4llvm11raw_ostreamlsEPKc.exit19
  %.not.i20 = icmp eq i64 %3, 0
  br i1 %.not.i20, label %_ZN4llvm11raw_ostreamlsENS_9StringRefE.exit, label %57

57:                                               ; preds = %56
  tail call void @llvm.memcpy.p0.p0.i64(ptr align 1 %46, ptr align 1 %2, i64 %3, i1 false)
  %58 = load ptr, ptr %49, align 8
  %59 = getelementptr inbounds i8, ptr %58, i64 %3
  store ptr %59, ptr %49, align 8
  br label %_ZN4llvm11raw_ostreamlsENS_9StringRefE.exit

.thread:                                          ; preds = %_ZN4llvm11raw_ostreamlsEPKc.exit, %18
  %60 = load ptr, ptr %5, align 8
  %61 = load ptr, ptr %7, align 8
  %62 = ptrtoint ptr %60 to i64
  %63 = ptrtoint ptr %61 to i64
  %64 = sub i64 %62, %63
  %65 = icmp ult i64 %64, 21
  br i1 %65, label %66, label %68

66:                                               ; preds = %.thread
  %67 = tail call noundef nonnull align 8 dereferenceable(48) ptr @_ZN4llvm11raw_ostream5writeEPKcm(ptr noundef nonnull align 8 dereferenceable(48) %0, ptr noundef nonnull @.str.315, i64 noundef 21) #20
  %.phi.trans.insert1 = getelementptr inbounds nuw i8, ptr %67, i64 32
  %.pre2 = load ptr, ptr %.phi.trans.insert1, align 8
  br label %_ZN4llvm11raw_ostreamlsEPKc.exit24

68:                                               ; preds = %.thread
  tail call void @llvm.memcpy.p0.p0.i64(ptr noundef nonnull align 1 dereferenceable(21) %61, ptr noundef nonnull align 1 dereferenceable(21) @.str.315, i64 21, i1 false)
  %69 = load ptr, ptr %7, align 8
  %70 = getelementptr inbounds i8, ptr %69, i64 21
  store ptr %70, ptr %7, align 8
  br label %_ZN4llvm11raw_ostreamlsEPKc.exit24

_ZN4llvm11raw_ostreamlsEPKc.exit24:               ; preds = %66, %68
  %71 = phi ptr [ %.pre2, %66 ], [ %70, %68 ]
  %.0.i.i23 = phi ptr [ %67, %66 ], [ %0, %68 ]
  %72 = getelementptr inbounds nuw i8, ptr %.0.i.i23, i64 24
  %73 = load ptr, ptr %72, align 8
  %74 = getelementptr inbounds nuw i8, ptr %.0.i.i23, i64 32
  %75 = ptrtoint ptr %73 to i64
  %76 = ptrtoint ptr %71 to i64
  %77 = sub i64 %75, %76
  %78 = icmp ugt i64 %3, %77
  br i1 %78, label %79, label %81

79:                                               ; preds = %_ZN4llvm11raw_ostreamlsEPKc.exit24
  %80 = tail call noundef nonnull align 8 dereferenceable(48) ptr @_ZN4llvm11raw_ostream5writeEPKcm(ptr noundef nonnull align 8 dereferenceable(48) %.0.i.i23, ptr noundef %2, i64 noundef %3) #20
  %.phi.trans.insert3 = getelementptr inbounds nuw i8, ptr %80, i64 32
  %.pre4 = load ptr, ptr %.phi.trans.insert3, align 8
  br label %_ZN4llvm11raw_ostreamlsENS_9StringRefE.exit27

81:                                               ; preds = %_ZN4llvm11raw_ostreamlsEPKc.exit24
  %.not.i25 = icmp eq i64 %3, 0
  br i1 %.not.i25, label %_ZN4llvm11raw_ostreamlsENS_9StringRefE.exit27, label %82

82:                                               ; preds = %81
  tail call void @llvm.memcpy.p0.p0.i64(ptr align 1 %71, ptr align 1 %2, i64 %3, i1 false)
  %83 = load ptr, ptr %74, align 8
  %84 = getelementptr inbounds i8, ptr %83, i64 %3
  store ptr %84, ptr %74, align 8
  br label %_ZN4llvm11raw_ostreamlsENS_9StringRefE.exit27

_ZN4llvm11raw_ostreamlsENS_9StringRefE.exit27:    ; preds = %79, %81, %82
  %85 = phi ptr [ %.pre4, %79 ], [ %84, %82 ], [ %71, %81 ]
  %.0.i26 = phi ptr [ %80, %79 ], [ %.0.i.i23, %82 ], [ %.0.i.i23, %81 ]
  %86 = getelementptr inbounds nuw i8, ptr %.0.i26, i64 24
  %87 = load ptr, ptr %86, align 8
  %.not.i28 = icmp ult ptr %85, %87
  br i1 %.not.i28, label %90, label %88

88:                                               ; preds = %_ZN4llvm11raw_ostreamlsENS_9StringRefE.exit27
  %89 = tail call noundef nonnull align 8 dereferenceable(48) ptr @_ZN4llvm11raw_ostream5writeEh(ptr noundef nonnull align 8 dereferenceable(48) %.0.i26, i8 noundef zeroext 44) #20
  br label %_ZN4llvm11raw_ostreamlsENS_9StringRefE.exit

90:                                               ; preds = %_ZN4llvm11raw_ostreamlsENS_9StringRefE.exit27
  %91 = getelementptr inbounds nuw i8, ptr %.0.i26, i64 32
  %92 = getelementptr inbounds i8, ptr %85, i64 1
  store ptr %92, ptr %91, align 8
  store i8 44, ptr %85, align 1
  br label %_ZN4llvm11raw_ostreamlsENS_9StringRefE.exit

_ZN4llvm11raw_ostreamlsENS_9StringRefE.exit:      ; preds = %90, %88, %57, %56, %54
  %93 = load ptr, ptr %7, align 8
  %94 = load ptr, ptr %5, align 8
  %.not.i31 = icmp ult ptr %93, %94
  br i1 %.not.i31, label %97, label %95

95:                                               ; preds = %_ZN4llvm11raw_ostreamlsENS_9StringRefE.exit
  %96 = tail call noundef nonnull align 8 dereferenceable(48) ptr @_ZN4llvm11raw_ostream5writeEh(ptr noundef nonnull align 8 dereferenceable(48) %0, i8 noundef zeroext 10) #20
  br label %_ZN4llvm11raw_ostreamlsEc.exit33

97:                                               ; preds = %_ZN4llvm11raw_ostreamlsENS_9StringRefE.exit
  %98 = getelementptr inbounds i8, ptr %93, i64 1
  store ptr %98, ptr %7, align 8
  store i8 10, ptr %93, align 1
  br label %_ZN4llvm11raw_ostreamlsEc.exit33

_ZN4llvm11raw_ostreamlsEc.exit33:                 ; preds = %95, %97
  ret void
}